target datalayout = "e-m:e-p270:32:32-p271:32:32-p272:64:64-i64:64-i128:128-f80:128-n8:16:32:64-S128"
target triple = "x86_64-pc-linux-gnu"

@hf_rpc_authgss_major = internal global i32 0, align 4
@hf_rpc_authgss_minor = internal global i32 0, align 4
@hf_rpc_authgss_window = internal global i32 0, align 4
@hf_rpc_authgss_token = internal global i32 0, align 4

; Function Attrs: null_pointer_is_valid sspstrong uwtable
define internal i32 @dissect_rpc_authgss_initres(ptr noundef %0, ptr noundef %1, i32 noundef %2, ptr noundef %3, ptr noundef %4) #0 {
  %6 = alloca ptr, align 8
  %7 = alloca ptr, align 8
  %8 = alloca i32, align 4
  %9 = alloca ptr, align 8
  %10 = alloca ptr, align 8
  %11 = alloca i32, align 4
  %12 = alloca i32, align 4
  %13 = alloca i32, align 4
  store ptr %0, ptr %6, align 8
  store ptr %1, ptr %7, align 8
  store i32 %2, ptr %8, align 4
  store ptr %3, ptr %9, align 8
  store ptr %4, ptr %10, align 8
  call void @llvm.lifetime.start.p0(i64 4, ptr %11) #18
  call void @llvm.lifetime.start.p0(i64 4, ptr %12) #18
  call void @llvm.lifetime.start.p0(i64 4, ptr %13) #18
  %14 = load ptr, ptr %7, align 8
  %15 = load ptr, ptr %6, align 8
  %16 = load i32, ptr %8, align 4
  %17 = load ptr, ptr %9, align 8
  %18 = load ptr, ptr %10, align 8
  %19 = call i32 @dissect_rpc_authgss_context(ptr noundef %14, ptr noundef %15, i32 noundef %16, ptr noundef %17, ptr noundef %18, i1 noundef zeroext true, i1 noundef zeroext false)
  store i32 %19, ptr %8, align 4
  %20 = load ptr, ptr %6, align 8
  %21 = load i32, ptr %8, align 4
  %22 = call i32 @tvb_get_ntohl(ptr noundef %20, i32 noundef %21)
  store i32 %22, ptr %11, align 4
  %23 = load ptr, ptr %7, align 8
  %24 = load i32, ptr @hf_rpc_authgss_major, align 4
  %25 = load ptr, ptr %6, align 8
  %26 = load i32, ptr %8, align 4
  %27 = load i32, ptr %11, align 4
  %28 = call ptr @proto_tree_add_uint(ptr noundef %23, i32 noundef %24, ptr noundef %25, i32 noundef %26, i32 noundef 4, i32 noundef %27)
  %29 = load i32, ptr %8, align 4
  %30 = add i32 %29, 4
  store i32 %30, ptr %8, align 4
  %31 = load ptr, ptr %6, align 8
  %32 = load i32, ptr %8, align 4
  %33 = call i32 @tvb_get_ntohl(ptr noundef %31, i32 noundef %32)
  store i32 %33, ptr %12, align 4
  %34 = load ptr, ptr %7, align 8
  %35 = load i32, ptr @hf_rpc_authgss_minor, align 4
  %36 = load ptr, ptr %6, align 8
  %37 = load i32, ptr %8, align 4
  %38 = load i32, ptr %12, align 4
  %39 = call ptr @proto_tree_add_uint(ptr noundef %34, i32 noundef %35, ptr noundef %36, i32 noundef %37, i32 noundef 4, i32 noundef %38)
  %40 = load i32, ptr %8, align 4
  %41 = add i32 %40, 4
  store i32 %41, ptr %8, align 4
  %42 = load ptr, ptr %6, align 8
  %43 = load i32, ptr %8, align 4
  %44 = call i32 @tvb_get_ntohl(ptr noundef %42, i32 noundef %43)
  store i32 %44, ptr %13, align 4
  %45 = load ptr, ptr %7, align 8
  %46 = load i32, ptr @hf_rpc_authgss_window, align 4
  %47 = load ptr, ptr %6, align 8
  %48 = load i32, ptr %8, align 4
  %49 = load i32, ptr %13, align 4
  %50 = call ptr @proto_tree_add_uint(ptr noundef %45, i32 noundef %46, ptr noundef %47, i32 noundef %48, i32 noundef 4, i32 noundef %49)
  %51 = load i32, ptr %8, align 4
  %52 = add i32 %51, 4
  store i32 %52, ptr %8, align 4
  %53 = load ptr, ptr %6, align 8
  %54 = load ptr, ptr %7, align 8
  %55 = load i32, ptr %8, align 4
  %56 = load ptr, ptr %9, align 8
  %57 = load i32, ptr @hf_rpc_authgss_token, align 4
  %58 = call i32 @dissect_rpc_authgss_token(ptr noundef %53, ptr noundef %54, i32 noundef %55, ptr noundef %56, i32 noundef %57)
  store i32 %58, ptr %8, align 4
  %59 = load i32, ptr %8, align 4
  call void @llvm.lifetime.end.p0(i64 4, ptr %13) #18
  call void @llvm.lifetime.end.p0(i64 4, ptr %12) #18
  call void @llvm.lifetime.end.p0(i64 4, ptr %11) #18
  ret i32 %59
}