; Function Attrs: null_pointer_is_valid sspstrong uwtable
define internal fastcc i32 @dissect_rpc_authgss_initres(ptr noundef %0, ptr noundef %1, i32 noundef %2, ptr noundef %3) unnamed_addr #0 {
  %5 = tail call fastcc i32 @dissect_rpc_authgss_context(ptr noundef %1, ptr noundef %0, i32 noundef %2, ptr noundef %3, i1 noundef zeroext true, i1 noundef zeroext false)
  %6 = tail call i32 @tvb_get_ntohl(ptr noundef %0, i32 noundef %5)
  %7 = load i32, ptr @hf_rpc_authgss_major, align 4
  %8 = tail call ptr @proto_tree_add_uint(ptr noundef %1, i32 noundef %7, ptr noundef %0, i32 noundef %5, i32 noundef 4, i32 noundef %6)
  %9 = add nuw nsw i32 %5, 4
  %10 = tail call i32 @tvb_get_ntohl(ptr noundef %0, i32 noundef %9)
  %11 = load i32, ptr @hf_rpc_authgss_minor, align 4
  %12 = tail call ptr @proto_tree_add_uint(ptr noundef %1, i32 noundef %11, ptr noundef %0, i32 noundef %9, i32 noundef 4, i32 noundef %10)
  %13 = add nuw nsw i32 %5, 8
  %14 = tail call i32 @tvb_get_ntohl(ptr noundef %0, i32 noundef %13)
  %15 = load i32, ptr @hf_rpc_authgss_window, align 4
  %16 = tail call ptr @proto_tree_add_uint(ptr noundef %1, i32 noundef %15, ptr noundef %0, i32 noundef %13, i32 noundef 4, i32 noundef %14)
  %17 = add nuw nsw i32 %5, 12
  %18 = load i32, ptr @hf_rpc_authgss_token, align 4
  %19 = tail call fastcc i32 @dissect_rpc_authgss_token(ptr noundef %0, ptr noundef %1, i32 noundef %17, ptr noundef %3, i32 noundef %18)
  ret i32 %19
}